target datalayout = "e-m:e-p270:32:32-p271:32:32-p272:64:64-i64:64-i128:128-f80:128-n8:16:32:64-S128"
target triple = "x86_64-pc-linux-gnu"

%struct.RTSPMessageHeader = type { i32, i32, i32, i64, i64, [8 x %struct.RTSPTransportField], i32, [512 x i8], [4096 x i8], [64 x i8], [64 x i8], i32, i32, [256 x i8], [64 x i8], [64 x i8] }
%struct.RTSPTransportField = type { i32, i32, i32, i32, i32, i32, i32, i32, i32, i32, %struct.sockaddr_storage, [47 x i8], i32, i32 }
%struct.sockaddr_storage = type { i16, [118 x i8], i64 }
%struct.AVFormatContext = type { ptr, ptr, ptr, ptr, ptr, i32, i32, ptr, i32, ptr, i32, ptr, ptr, i64, i64, i64, i32, i32, i32, i64, i64, ptr, i32, i32, ptr, i32, i32, i32, i32, ptr, i64, i32, i32, %struct.AVIOInterruptCB, i32, i32, i32, i32, i64, i32, i32, i32, i32, i32, i32, i32, i32, i32, i32, i32, i32, i64, i32, i32, i32, i32, i32, ptr, ptr, ptr, ptr, i32, ptr, ptr, ptr, ptr, i32, ptr, ptr, i64, ptr, ptr, ptr, i64 }
%struct.AVIOInterruptCB = type { ptr, ptr }
%struct.RTSPState = type { ptr, ptr, i32, ptr, i32, i64, i32, [512 x i8], i32, i64, i32, i32, i32, [64 x i8], [128 x i8], %struct.HTTPAuthState, [2048 x i8], ptr, i32, ptr, ptr, [1024 x i8], ptr, i64, [4096 x i8], ptr, i32, i32, ptr, i32, i32, ptr, i32, i64, ptr, i32, i32, i32, i32, i32, i32, i32, i32, i32, i32, i64, i32, ptr, [4 x i8], i32, i32, ptr }
%struct.HTTPAuthState = type { i32, [200 x i8], %struct.DigestParams, i32 }
%struct.DigestParams = type { [300 x i8], [10 x i8], [30 x i8], [300 x i8], [10 x i8], i32 }
%struct.RTSPStream = type { ptr, ptr, i32, i32, i32, [4096 x i8], i32, %struct.sockaddr_storage, i32, ptr, i32, ptr, i32, i32, ptr, ptr, i32, i32, [40 x i8], [100 x i8] }

@.str = private unnamed_addr constant [5 x i8] c"rtsp\00", align 1
@.str.1 = private unnamed_addr constant [9 x i8] c"SDP:\0A%s\0A\00", align 1
@.str.2 = private unnamed_addr constant [9 x i8] c"ANNOUNCE\00", align 1
@.str.3 = private unnamed_addr constant [32 x i8] c"Content-Type: application/sdp\0D\0A\00", align 1
@.str.4 = private unnamed_addr constant [13 x i8] c"/streamid=%d\00", align 1

; Function Attrs: inlinehint nounwind uwtable
define internal i32 @ff_rtsp_averror(i32 noundef %0, i32 noundef %1) #5 {
  %3 = alloca i32, align 4
  %4 = alloca i32, align 4
  store i32 %0, ptr %3, align 4, !tbaa !38
  store i32 %1, ptr %4, align 4, !tbaa !38
  %5 = load i32, ptr %3, align 4, !tbaa !38
  %6 = load i32, ptr %4, align 4, !tbaa !38
  %7 = call i32 @ff_http_averror(i32 noundef %5, i32 noundef %6)
  ret i32 %7
}

; Function Attrs: nounwind uwtable
define i32 @ff_rtsp_setup_output_streams(ptr noundef %0, ptr noundef %1) #0 {
  %3 = alloca i32, align 4
  %4 = alloca ptr, align 8
  %5 = alloca ptr, align 8
  %6 = alloca ptr, align 8
  %7 = alloca %struct.RTSPMessageHeader, align 8
  %8 = alloca ptr, align 8
  %9 = alloca i32, align 4
  %10 = alloca ptr, align 8
  %11 = alloca %struct.AVFormatContext, align 8
  %12 = alloca [1 x ptr], align 8
  %13 = alloca [4096 x i8], align 16
  %14 = alloca i32, align 4
  %15 = alloca ptr, align 8
  %16 = alloca ptr, align 8
  %17 = alloca ptr, align 8
  store ptr %0, ptr %4, align 8, !tbaa !4
  store ptr %1, ptr %5, align 8, !tbaa !9
  call void @llvm.lifetime.start.p0(i64 8, ptr %6) #8
  %18 = load ptr, ptr %4, align 8, !tbaa !4
  %19 = getelementptr inbounds nuw %struct.AVFormatContext, ptr %18, i32 0, i32 3
  %20 = load ptr, ptr %19, align 8, !tbaa !11
  store ptr %20, ptr %6, align 8, !tbaa !27
  call void @llvm.lifetime.start.p0(i64 6960, ptr %7) #8
  call void @llvm.lifetime.start.p0(i64 8, ptr %8) #8
  store ptr %7, ptr %8, align 8, !tbaa !29
  call void @llvm.lifetime.start.p0(i64 4, ptr %9) #8
  call void @llvm.lifetime.start.p0(i64 8, ptr %10) #8
  call void @llvm.lifetime.start.p0(i64 472, ptr %11) #8
  call void @llvm.lifetime.start.p0(i64 8, ptr %12) #8
  call void @llvm.lifetime.start.p0(i64 4096, ptr %13) #8
  %21 = load ptr, ptr %4, align 8, !tbaa !4
  %22 = getelementptr inbounds nuw %struct.AVFormatContext, ptr %21, i32 0, i32 30
  %23 = load i64, ptr %22, align 8, !tbaa !31
  %24 = icmp eq i64 %23, 0
  br i1 %24, label %30, label %25

25:                                               ; preds = %2
  %26 = load ptr, ptr %4, align 8, !tbaa !4
  %27 = getelementptr inbounds nuw %struct.AVFormatContext, ptr %26, i32 0, i32 30
  %28 = load i64, ptr %27, align 8, !tbaa !31
  %29 = icmp eq i64 %28, -9223372036854775808
  br i1 %29, label %30, label %34

30:                                               ; preds = %25, %2
  %31 = call i64 @av_gettime()
  %32 = load ptr, ptr %4, align 8, !tbaa !4
  %33 = getelementptr inbounds nuw %struct.AVFormatContext, ptr %32, i32 0, i32 30
  store i64 %31, ptr %33, align 8, !tbaa !31
  br label %34

34:                                               ; preds = %30, %25
  %35 = call noalias ptr @av_mallocz(i64 noundef 16384)
  store ptr %35, ptr %10, align 8, !tbaa !9
  %36 = load ptr, ptr %10, align 8, !tbaa !9
  %37 = icmp ne ptr %36, null
  br i1 %37, label %39, label %38

38:                                               ; preds = %34
  store i32 -12, ptr %3, align 4
  store i32 1, ptr %14, align 4
  br label %121

39:                                               ; preds = %34
  %40 = load ptr, ptr %4, align 8, !tbaa !4
  call void @llvm.memcpy.p0.p0.i64(ptr align 8 %11, ptr align 8 %40, i64 472, i1 false), !tbaa.struct !32
  %41 = getelementptr inbounds [4096 x i8], ptr %13, i64 0, i64 0
  %42 = getelementptr inbounds nuw %struct.AVFormatContext, ptr %11, i32 0, i32 12
  store ptr %41, ptr %42, align 8, !tbaa !46
  %43 = getelementptr inbounds [4096 x i8], ptr %13, i64 0, i64 0
  %44 = load ptr, ptr %5, align 8, !tbaa !9
  %45 = call i32 (ptr, i32, ptr, ptr, ptr, i32, ptr, ...) @ff_url_join(ptr noundef %43, i32 noundef 4096, ptr noundef @.str, ptr noundef null, ptr noundef %44, i32 noundef -1, ptr noundef null)
  %46 = getelementptr inbounds [1 x ptr], ptr %12, i64 0, i64 0
  store ptr %11, ptr %46, align 8, !tbaa !4
  %47 = getelementptr inbounds [1 x ptr], ptr %12, i64 0, i64 0
  %48 = load ptr, ptr %10, align 8, !tbaa !9
  %49 = call i32 @av_sdp_create(ptr noundef %47, i32 noundef 1, ptr noundef %48, i32 noundef 16384)
  %50 = icmp ne i32 %49, 0
  br i1 %50, label %51, label %53

51:                                               ; preds = %39
  %52 = load ptr, ptr %10, align 8, !tbaa !9
  call void @av_free(ptr noundef %52)
  store i32 -1094995529, ptr %3, align 4
  store i32 1, ptr %14, align 4
  br label %121

53:                                               ; preds = %39
  %54 = load ptr, ptr %4, align 8, !tbaa !4
  %55 = load ptr, ptr %10, align 8, !tbaa !9
  call void (ptr, i32, ptr, ...) @av_log(ptr noundef %54, i32 noundef 40, ptr noundef @.str.1, ptr noundef %55)
  %56 = load ptr, ptr %4, align 8, !tbaa !4
  %57 = load ptr, ptr %6, align 8, !tbaa !27
  %58 = getelementptr inbounds nuw %struct.RTSPState, ptr %57, i32 0, i32 24
  %59 = getelementptr inbounds [4096 x i8], ptr %58, i64 0, i64 0
  %60 = load ptr, ptr %8, align 8, !tbaa !29
  %61 = load ptr, ptr %10, align 8, !tbaa !9
  %62 = load ptr, ptr %10, align 8, !tbaa !9
  %63 = call i64 @strlen(ptr noundef %62) #9
  %64 = trunc i64 %63 to i32
  %65 = call i32 @ff_rtsp_send_cmd_with_content(ptr noundef %56, ptr noundef @.str.2, ptr noundef %59, ptr noundef @.str.3, ptr noundef %60, ptr noundef null, ptr noundef %61, i32 noundef %64)
  %66 = load ptr, ptr %10, align 8, !tbaa !9
  call void @av_free(ptr noundef %66)
  %67 = load ptr, ptr %8, align 8, !tbaa !29
  %68 = getelementptr inbounds nuw %struct.RTSPMessageHeader, ptr %67, i32 0, i32 1
  %69 = load i32, ptr %68, align 4, !tbaa !47
  %70 = icmp ne i32 %69, 200
  br i1 %70, label %71, label %76

71:                                               ; preds = %53
  %72 = load ptr, ptr %8, align 8, !tbaa !29
  %73 = getelementptr inbounds nuw %struct.RTSPMessageHeader, ptr %72, i32 0, i32 1
  %74 = load i32, ptr %73, align 4, !tbaa !47
  %75 = call i32 @ff_rtsp_averror(i32 noundef %74, i32 noundef -1094995529)
  store i32 %75, ptr %3, align 4
  store i32 1, ptr %14, align 4
  br label %121

76:                                               ; preds = %53
  store i32 0, ptr %9, align 4, !tbaa !38
  br label %77

77:                                               ; preds = %117, %76
  %78 = load i32, ptr %9, align 4, !tbaa !38
  %79 = load ptr, ptr %4, align 8, !tbaa !4
  %80 = getelementptr inbounds nuw %struct.AVFormatContext, ptr %79, i32 0, i32 6
  %81 = load i32, ptr %80, align 4, !tbaa !49
  %82 = icmp ult i32 %78, %81
  br i1 %82, label %83, label %120

83:                                               ; preds = %77
  call void @llvm.lifetime.start.p0(i64 8, ptr %15) #8
  %84 = call noalias ptr @av_mallocz(i64 noundef 4464)
  store ptr %84, ptr %15, align 8, !tbaa !50
  %85 = load ptr, ptr %15, align 8, !tbaa !50
  %86 = icmp ne ptr %85, null
  br i1 %86, label %88, label %87

87:                                               ; preds = %83
  store i32 -12, ptr %3, align 4
  store i32 1, ptr %14, align 4
  br label %114

88:                                               ; preds = %83
  br label %89

89:                                               ; preds = %88
  call void @llvm.lifetime.start.p0(i64 8, ptr %16) #8
  %90 = load ptr, ptr %6, align 8, !tbaa !27
  %91 = getelementptr inbounds nuw %struct.RTSPState, ptr %90, i32 0, i32 3
  store ptr %91, ptr %16, align 8, !tbaa !52
  call void @llvm.lifetime.start.p0(i64 8, ptr %17) #8
  %92 = load ptr, ptr %15, align 8, !tbaa !50
  store ptr %92, ptr %17, align 8, !tbaa !50
  %93 = load ptr, ptr %16, align 8, !tbaa !52
  %94 = load ptr, ptr %6, align 8, !tbaa !27
  %95 = getelementptr inbounds nuw %struct.RTSPState, ptr %94, i32 0, i32 2
  %96 = load ptr, ptr %17, align 8, !tbaa !50
  call void @av_dynarray_add(ptr noundef %93, ptr noundef %95, ptr noundef %96)
  call void @llvm.lifetime.end.p0(i64 8, ptr %17) #8
  call void @llvm.lifetime.end.p0(i64 8, ptr %16) #8
  br label %97

97:                                               ; preds = %89
  br label %98

98:                                               ; preds = %97
  %99 = load i32, ptr %9, align 4, !tbaa !38
  %100 = load ptr, ptr %15, align 8, !tbaa !50
  %101 = getelementptr inbounds nuw %struct.RTSPStream, ptr %100, i32 0, i32 2
  store i32 %99, ptr %101, align 8, !tbaa !55
  %102 = load ptr, ptr %15, align 8, !tbaa !50
  %103 = getelementptr inbounds nuw %struct.RTSPStream, ptr %102, i32 0, i32 5
  %104 = getelementptr inbounds [4096 x i8], ptr %103, i64 0, i64 0
  %105 = load ptr, ptr %6, align 8, !tbaa !27
  %106 = getelementptr inbounds nuw %struct.RTSPState, ptr %105, i32 0, i32 24
  %107 = getelementptr inbounds [4096 x i8], ptr %106, i64 0, i64 0
  %108 = call i64 @av_strlcpy(ptr noundef %104, ptr noundef %107, i64 noundef 4096)
  %109 = load ptr, ptr %15, align 8, !tbaa !50
  %110 = getelementptr inbounds nuw %struct.RTSPStream, ptr %109, i32 0, i32 5
  %111 = getelementptr inbounds [4096 x i8], ptr %110, i64 0, i64 0
  %112 = load i32, ptr %9, align 4, !tbaa !38
  %113 = call i64 (ptr, i64, ptr, ...) @av_strlcatf(ptr noundef %111, i64 noundef 4096, ptr noundef @.str.4, i32 noundef %112)
  store i32 0, ptr %14, align 4
  br label %114

114:                                              ; preds = %98, %87
  call void @llvm.lifetime.end.p0(i64 8, ptr %15) #8
  %115 = load i32, ptr %14, align 4
  switch i32 %115, label %121 [
    i32 0, label %116
  ]

116:                                              ; preds = %114
  br label %117

117:                                              ; preds = %116
  %118 = load i32, ptr %9, align 4, !tbaa !38
  %119 = add nsw i32 %118, 1
  store i32 %119, ptr %9, align 4, !tbaa !38
  br label %77, !llvm.loop !63

120:                                              ; preds = %77
  store i32 0, ptr %3, align 4
  store i32 1, ptr %14, align 4
  br label %121

121:                                              ; preds = %120, %114, %71, %51, %38
  call void @llvm.lifetime.end.p0(i64 4096, ptr %13) #8
  call void @llvm.lifetime.end.p0(i64 8, ptr %12) #8
  call void @llvm.lifetime.end.p0(i64 472, ptr %11) #8
  call void @llvm.lifetime.end.p0(i64 8, ptr %10) #8
  call void @llvm.lifetime.end.p0(i64 4, ptr %9) #8
  call void @llvm.lifetime.end.p0(i64 8, ptr %8) #8
  call void @llvm.lifetime.end.p0(i64 6960, ptr %7) #8
  call void @llvm.lifetime.end.p0(i64 8, ptr %6) #8
  %122 = load i32, ptr %3, align 4
  ret i32 %122
}