; Function Attrs: nounwind uwtable
define i32 @ff_rtsp_setup_output_streams(ptr noundef %0, ptr noundef %1) local_unnamed_addr #0 {
  %3 = alloca %struct.RTSPMessageHeader, align 8
  %4 = alloca %struct.AVFormatContext, align 8
  %5 = alloca [1 x ptr], align 8
  %6 = alloca [4096 x i8], align 16
  %7 = getelementptr inbounds nuw i8, ptr %0, i64 24
  %8 = load ptr, ptr %7, align 8, !tbaa !4
  call void @llvm.lifetime.start.p0(i64 6960, ptr nonnull %3) #6
  call void @llvm.lifetime.start.p0(i64 472, ptr nonnull %4) #6
  call void @llvm.lifetime.start.p0(i64 8, ptr nonnull %5) #6
  call void @llvm.lifetime.start.p0(i64 4096, ptr nonnull %6) #6
  %9 = getelementptr inbounds nuw i8, ptr %0, i64 200
  %10 = load i64, ptr %9, align 8, !tbaa !24
  switch i64 %10, label %13 [
    i64 0, label %11
    i64 -9223372036854775808, label %11
  ]

11:                                               ; preds = %2, %2
  %12 = tail call i64 @av_gettime() #6
  store i64 %12, ptr %9, align 8, !tbaa !24
  br label %13

13:                                               ; preds = %2, %11
  %14 = tail call noalias ptr @av_mallocz(i64 noundef 16384) #6
  %.not = icmp eq ptr %14, null
  br i1 %.not, label %.critedge, label %15

15:                                               ; preds = %13
  call void @llvm.memcpy.p0.p0.i64(ptr noundef nonnull align 8 dereferenceable(472) %4, ptr noundef nonnull align 8 dereferenceable(472) %0, i64 472, i1 false), !tbaa.struct !25
  %16 = getelementptr inbounds nuw i8, ptr %4, i64 88
  store ptr %6, ptr %16, align 8, !tbaa !40
  %17 = call i32 (ptr, i32, ptr, ptr, ptr, i32, ptr, ...) @ff_url_join(ptr noundef nonnull %6, i32 noundef 4096, ptr noundef nonnull @.str, ptr noundef null, ptr noundef %1, i32 noundef -1, ptr noundef null) #6
  store ptr %4, ptr %5, align 8, !tbaa !41
  %18 = call i32 @av_sdp_create(ptr noundef nonnull %5, i32 noundef 1, ptr noundef nonnull %14, i32 noundef 16384) #6
  %.not41 = icmp eq i32 %18, 0
  br i1 %.not41, label %20, label %19

19:                                               ; preds = %15
  call void @av_free(ptr noundef nonnull %14) #6
  br label %.critedge

20:                                               ; preds = %15
  call void (ptr, i32, ptr, ...) @av_log(ptr noundef nonnull %0, i32 noundef 40, ptr noundef nonnull @.str.1, ptr noundef nonnull %14) #6
  %21 = getelementptr inbounds nuw i8, ptr %8, i64 4768
  %22 = call i64 @strlen(ptr noundef nonnull dereferenceable(1) %14) #7
  %23 = trunc i64 %22 to i32
  %24 = call i32 @ff_rtsp_send_cmd_with_content(ptr noundef nonnull %0, ptr noundef nonnull @.str.2, ptr noundef nonnull %21, ptr noundef nonnull @.str.3, ptr noundef nonnull %3, ptr noundef null, ptr noundef nonnull %14, i32 noundef %23) #6
  call void @av_free(ptr noundef nonnull %14) #6
  %25 = getelementptr inbounds nuw i8, ptr %3, i64 4
  %26 = load i32, ptr %25, align 4, !tbaa !43
  %.not42 = icmp eq i32 %26, 200
  br i1 %.not42, label %.preheader, label %31

.preheader:                                       ; preds = %20
  %27 = getelementptr inbounds nuw i8, ptr %0, i64 44
  %28 = load i32, ptr %27, align 4, !tbaa !45
  %.not47 = icmp eq i32 %28, 0
  br i1 %.not47, label %.critedge, label %.lr.ph

.lr.ph:                                           ; preds = %.preheader
  %29 = getelementptr inbounds nuw i8, ptr %8, i64 24
  %30 = getelementptr inbounds nuw i8, ptr %8, i64 16
  br label %33

31:                                               ; preds = %20
  %32 = call i32 @ff_http_averror(i32 noundef range(i32 201, 200) %26, i32 noundef -1094995529) #6
  br label %.critedge

33:                                               ; preds = %.lr.ph, %35
  %.03544 = phi i32 [ 0, %.lr.ph ], [ %40, %35 ]
  %34 = call noalias ptr @av_mallocz(i64 noundef 4464) #6
  %.not43.not = icmp eq ptr %34, null
  br i1 %.not43.not, label %.critedge, label %35

35:                                               ; preds = %33
  call void @av_dynarray_add(ptr noundef nonnull %29, ptr noundef nonnull %30, ptr noundef nonnull %34) #6
  %36 = getelementptr inbounds nuw i8, ptr %34, i64 16
  store i32 %.03544, ptr %36, align 8, !tbaa !46
  %37 = getelementptr inbounds nuw i8, ptr %34, i64 28
  %38 = call i64 @av_strlcpy(ptr noundef nonnull %37, ptr noundef nonnull %21, i64 noundef 4096) #6
  %39 = call i64 (ptr, i64, ptr, ...) @av_strlcatf(ptr noundef nonnull %37, i64 noundef 4096, ptr noundef nonnull @.str.4, i32 noundef %.03544) #6
  %40 = add nuw nsw i32 %.03544, 1
  %41 = load i32, ptr %27, align 4, !tbaa !45
  %42 = icmp ult i32 %40, %41
  br i1 %42, label %33, label %.critedge, !llvm.loop !54

.critedge:                                        ; preds = %35, %33, %.preheader, %13, %31, %19
  %.0 = phi i32 [ -1094995529, %19 ], [ %32, %31 ], [ -12, %13 ], [ 0, %.preheader ], [ 0, %35 ], [ -12, %33 ]
  call void @llvm.lifetime.end.p0(i64 4096, ptr nonnull %6) #6
  call void @llvm.lifetime.end.p0(i64 8, ptr nonnull %5) #6
  call void @llvm.lifetime.end.p0(i64 472, ptr nonnull %4) #6
  call void @llvm.lifetime.end.p0(i64 6960, ptr nonnull %3) #6
  ret i32 %.0
}